#include <math.h>
#include <stdio.h>
#include <stdlib.h>
#include <string.h>

int main(int argc, char* argv[])
{
	int n,i,j,m;
	scanf("%d",&n);
	
	for(i=0;i<n;i++)
	{
	  double A[1000],sum=0,a,b=0,s,S;
	  scanf("%d",&m);
	  for(j=0;j<m;j++)
	  {
	    scanf("%lf",&A[j]);
		sum=sum+A[j];
	  }
	  a=(double)(sum/m);

	  for(j=0;j<m;j++)
	  {
	     b=b+(A[j]-a)*(A[j]-a);
	  }
	  s=(double)b/m;
	  S=sqrt(s);
	  printf("%.5lf\n",S);
	}
	return 0;
}

